; Function Attrs: mustprogress uwtable
define hidden noundef nonnull align 8 dereferenceable(16) ptr @_ZN2dd3bddaSERKS0_(ptr noundef nonnull returned align 8 dereferenceable(16) %this, ptr nocapture noundef nonnull readonly align 8 dereferenceable(16) %other) local_unnamed_addr #3 align 2 {
entry:
  %0 = load i32, ptr %this, align 8
  %1 = load i32, ptr %other, align 8
  store i32 %1, ptr %this, align 8
  %m = getelementptr inbounds i8, ptr %this, i64 8
  %2 = load ptr, ptr %m, align 8
  %m_nodes.i = getelementptr inbounds i8, ptr %2, i64 8
  %3 = load ptr, ptr %m_nodes.i, align 8
  %idxprom.i.i = zext i32 %1 to i64
  %arrayidx.i.i = getelementptr inbounds %"struct.dd::bdd_manager::bdd_node", ptr %3, i64 %idxprom.i.i
  %bf.load.i = load i32, ptr %arrayidx.i.i, align 4
  %bf.clear.i = and i32 %bf.load.i, 1023
  %cmp.not.i = icmp eq i32 %bf.clear.i, 1023
  br i1 %cmp.not.i, label %if.end.i, label %if.then.i

if.then.i:                                        ; preds = %entry
  %inc.i = add i32 %bf.load.i, 1
  %bf.value.i = and i32 %inc.i, 1023
  %bf.clear7.i = and i32 %bf.load.i, -1024
  %bf.set.i = or disjoint i32 %bf.value.i, %bf.clear7.i
  store i32 %bf.set.i, ptr %arrayidx.i.i, align 4
  br label %if.end.i

if.end.i:                                         ; preds = %if.then.i, %entry
  %m_free_nodes.i = getelementptr inbounds i8, ptr %2, i64 112
  %4 = load ptr, ptr %m_free_nodes.i, align 8
  %cmp.i.i.i.i = icmp eq ptr %4, null
  br i1 %cmp.i.i.i.i, label %_ZN2dd11bdd_manager7inc_refEj.exit, label %_ZNK6vectorIjLb0EjE3endEv.exit.i.i

_ZNK6vectorIjLb0EjE3endEv.exit.i.i:               ; preds = %if.end.i
  %arrayidx.i.i.i.i = getelementptr inbounds i8, ptr %4, i64 -4
  %5 = load i32, ptr %arrayidx.i.i.i.i, align 4
  %6 = zext i32 %5 to i64
  %add.ptr.i.i.i = getelementptr inbounds i32, ptr %4, i64 %6
  %cmp.not3.not.i.i = icmp eq i32 %5, 0
  br i1 %cmp.not3.not.i.i, label %_ZN2dd11bdd_manager7inc_refEj.exit, label %for.body.i.i

for.cond.i.i:                                     ; preds = %for.body.i.i
  %incdec.ptr.i.i = getelementptr inbounds i8, ptr %it.04.i.i, i64 4
  %cmp.not.not.i.i = icmp eq ptr %incdec.ptr.i.i, %add.ptr.i.i.i
  br i1 %cmp.not.not.i.i, label %_ZN2dd11bdd_manager7inc_refEj.exit, label %for.body.i.i, !llvm.loop !19

for.body.i.i:                                     ; preds = %_ZNK6vectorIjLb0EjE3endEv.exit.i.i, %for.cond.i.i
  %it.04.i.i = phi ptr [ %incdec.ptr.i.i, %for.cond.i.i ], [ %4, %_ZNK6vectorIjLb0EjE3endEv.exit.i.i ]
  %7 = load i32, ptr %it.04.i.i, align 4
  %cmp3.i.i = icmp eq i32 %7, %1
  br i1 %cmp3.i.i, label %if.then9.i, label %for.cond.i.i

if.then9.i:                                       ; preds = %for.body.i.i
  tail call void @_Z26notify_assertion_violationPKciS0_(ptr noundef nonnull @.str.15, i32 noundef 186, ptr noundef nonnull @.str.16)
  tail call void @exit(i32 noundef 114) #26
  unreachable

_ZN2dd11bdd_manager7inc_refEj.exit:               ; preds = %for.cond.i.i, %if.end.i, %_ZNK6vectorIjLb0EjE3endEv.exit.i.i
  %8 = load ptr, ptr %m, align 8
  %m_nodes.i1 = getelementptr inbounds i8, ptr %8, i64 8
  %9 = load ptr, ptr %m_nodes.i1, align 8
  %idxprom.i.i2 = zext i32 %0 to i64
  %arrayidx.i.i3 = getelementptr inbounds %"struct.dd::bdd_manager::bdd_node", ptr %9, i64 %idxprom.i.i2
  %bf.load.i4 = load i32, ptr %arrayidx.i.i3, align 4
  %bf.clear.i5 = and i32 %bf.load.i4, 1023
  %cmp.not.i6 = icmp eq i32 %bf.clear.i5, 1023
  br i1 %cmp.not.i6, label %if.end.i11, label %if.then.i7

if.then.i7:                                       ; preds = %_ZN2dd11bdd_manager7inc_refEj.exit
  %dec.i = add i32 %bf.load.i4, 1023
  %bf.value.i8 = and i32 %dec.i, 1023
  %bf.clear7.i9 = and i32 %bf.load.i4, -1024
  %bf.set.i10 = or disjoint i32 %bf.value.i8, %bf.clear7.i9
  store i32 %bf.set.i10, ptr %arrayidx.i.i3, align 4
  br label %if.end.i11

if.end.i11:                                       ; preds = %if.then.i7, %_ZN2dd11bdd_manager7inc_refEj.exit
  %m_free_nodes.i12 = getelementptr inbounds i8, ptr %8, i64 112
  %10 = load ptr, ptr %m_free_nodes.i12, align 8
  %cmp.i.i.i.i13 = icmp eq ptr %10, null
  br i1 %cmp.i.i.i.i13, label %_ZN2dd11bdd_manager7dec_refEj.exit, label %_ZNK6vectorIjLb0EjE3endEv.exit.i.i14

_ZNK6vectorIjLb0EjE3endEv.exit.i.i14:             ; preds = %if.end.i11
  %arrayidx.i.i.i.i15 = getelementptr inbounds i8, ptr %10, i64 -4
  %11 = load i32, ptr %arrayidx.i.i.i.i15, align 4
  %12 = zext i32 %11 to i64
  %add.ptr.i.i.i16 = getelementptr inbounds i32, ptr %10, i64 %12
  %cmp.not3.not.i.i17 = icmp eq i32 %11, 0
  br i1 %cmp.not3.not.i.i17, label %_ZN2dd11bdd_manager7dec_refEj.exit, label %for.body.i.i18

for.cond.i.i21:                                   ; preds = %for.body.i.i18
  %incdec.ptr.i.i22 = getelementptr inbounds i8, ptr %it.04.i.i19, i64 4
  %cmp.not.not.i.i23 = icmp eq ptr %incdec.ptr.i.i22, %add.ptr.i.i.i16
  br i1 %cmp.not.not.i.i23, label %_ZN2dd11bdd_manager7dec_refEj.exit, label %for.body.i.i18, !llvm.loop !19

for.body.i.i18:                                   ; preds = %_ZNK6vectorIjLb0EjE3endEv.exit.i.i14, %for.cond.i.i21
  %it.04.i.i19 = phi ptr [ %incdec.ptr.i.i22, %for.cond.i.i21 ], [ %10, %_ZNK6vectorIjLb0EjE3endEv.exit.i.i14 ]
  %13 = load i32, ptr %it.04.i.i19, align 4
  %cmp3.i.i20 = icmp eq i32 %13, %0
  br i1 %cmp3.i.i20, label %if.then9.i24, label %for.cond.i.i21

if.then9.i24:                                     ; preds = %for.body.i.i18
  tail call void @_Z26notify_assertion_violationPKciS0_(ptr noundef nonnull @.str.15, i32 noundef 187, ptr noundef nonnull @.str.16)
  tail call void @exit(i32 noundef 114) #26
  unreachable

_ZN2dd11bdd_manager7dec_refEj.exit:               ; preds = %for.cond.i.i21, %if.end.i11, %_ZNK6vectorIjLb0EjE3endEv.exit.i.i14
  ret ptr %this
}